target datalayout = "e-m:e-p270:32:32-p271:32:32-p272:64:64-i64:64-i128:128-f80:128-n8:16:32:64-S128"
target triple = "x86_64-pc-linux-gnu"

@REPEAT_TESTS_INIT = global i32 0, align 4
@XML_FILE = global ptr null, align 8
@.str.5 = private unnamed_addr constant [21 x i8] c"TEST CAN'T BE FOUND!\00", align 1
@ERROR_COUNT = internal global i32 0, align 4
@ON_LINE = internal global i8 0, align 1
@ARGV_0 = internal global ptr @.str.80, align 8
@.str.19 = private unnamed_addr constant [3 x i8] c"-a\00", align 1
@.str.20 = private unnamed_addr constant [5 x i8] c"-all\00", align 1
@.str.23 = private unnamed_addr constant [3 x i8] c"-l\00", align 1
@.str.46 = private unnamed_addr constant [24 x i8] c"Selecting subtree '%s'\0A\00", align 1
@.str.47 = private unnamed_addr constant [39 x i8] c"* Could not find any matching subtree\0A\00", align 1
@.str.48 = private unnamed_addr constant [19 x i8] c" Total errors: %d\0A\00", align 1
@XML_FILE_NAME = internal global ptr null, align 8
@.str.52 = private unnamed_addr constant [14 x i8] c"</testsuite>\0A\00", align 1
@.str.53 = private unnamed_addr constant [33 x i8] c" ( test results written to %s )\0A\00", align 1

; Function Attrs: nounwind uwtable
define i32 @ctest_xml_fini() #0 {
  %1 = alloca i32, align 4
  %2 = load ptr, ptr @XML_FILE, align 8, !tbaa !27
  %3 = icmp ne ptr %2, null
  br i1 %3, label %5, label %4

4:                                                ; preds = %0
  store i32 0, ptr %1, align 4
  br label %12

5:                                                ; preds = %0
  %6 = load ptr, ptr @XML_FILE, align 8, !tbaa !27
  %7 = call i32 (ptr, ptr, ...) @fprintf(ptr noundef %6, ptr noundef @.str.52) #12
  %8 = load ptr, ptr @XML_FILE, align 8, !tbaa !27
  %9 = call i32 @fclose(ptr noundef %8)
  %10 = load ptr, ptr @XML_FILE_NAME, align 8, !tbaa !15
  %11 = call i32 (ptr, ...) @printf(ptr noundef @.str.53, ptr noundef %10)
  store ptr null, ptr @XML_FILE, align 8, !tbaa !27
  store i32 0, ptr %1, align 4
  br label %12

12:                                               ; preds = %5, %4
  %13 = load i32, ptr %1, align 4
  ret i32 %13
}

; Function Attrs: nounwind uwtable
define void @showTests(ptr noundef %0) #0 {
  %2 = alloca ptr, align 8
  %3 = alloca [512 x ptr], align 16
  store ptr %0, ptr %2, align 8, !tbaa !3
  call void @llvm.lifetime.start.p0(i64 4096, ptr %3) #12
  %4 = load ptr, ptr %2, align 8, !tbaa !3
  %5 = icmp eq ptr %4, null
  br i1 %5, label %6, label %7

6:                                                ; preds = %1
  call void (ptr, ...) @log_err(ptr noundef @.str.5)
  br label %7

7:                                                ; preds = %6, %1
  %8 = load ptr, ptr %2, align 8, !tbaa !3
  %9 = getelementptr inbounds [512 x ptr], ptr %3, i64 0, i64 0
  call void @iterateTestsWithLevel(ptr noundef %8, i32 noundef 0, ptr noundef %9, i32 noundef 1)
  call void @llvm.lifetime.end.p0(i64 4096, ptr %3) #12
  ret void
}

; Function Attrs: nounwind uwtable
define i32 @runTestRequest(ptr noundef %0, i32 noundef %1, ptr noundef %2) #0 {
  %4 = alloca i32, align 4
  %5 = alloca ptr, align 8
  %6 = alloca i32, align 4
  %7 = alloca ptr, align 8
  %8 = alloca ptr, align 8
  %9 = alloca i32, align 4
  %10 = alloca i32, align 4
  %11 = alloca i32, align 4
  %12 = alloca i32, align 4
  %13 = alloca i32, align 4
  store ptr %0, ptr %5, align 8, !tbaa !3
  store i32 %1, ptr %6, align 4, !tbaa !18
  store ptr %2, ptr %7, align 8, !tbaa !34
  call void @llvm.lifetime.start.p0(i64 8, ptr %8) #12
  call void @llvm.lifetime.start.p0(i64 4, ptr %9) #12
  call void @llvm.lifetime.start.p0(i64 4, ptr %10) #12
  store i32 0, ptr %10, align 4, !tbaa !18
  call void @llvm.lifetime.start.p0(i64 4, ptr %11) #12
  store i32 0, ptr %11, align 4, !tbaa !18
  call void @llvm.lifetime.start.p0(i64 4, ptr %12) #12
  store i32 0, ptr %12, align 4, !tbaa !18
  %14 = load ptr, ptr %5, align 8, !tbaa !3
  store ptr %14, ptr %8, align 8, !tbaa !3
  %15 = load ptr, ptr @ARGV_0, align 8, !tbaa !15
  %16 = call i32 @ctest_xml_init(ptr noundef %15)
  %17 = icmp ne i32 %16, 0
  br i1 %17, label %18, label %19

18:                                               ; preds = %3
  store i32 1, ptr %4, align 4
  store i32 1, ptr %13, align 4
  br label %140

19:                                               ; preds = %3
  store i32 1, ptr %9, align 4, !tbaa !18
  br label %20

20:                                               ; preds = %105, %19
  %21 = load i32, ptr %9, align 4, !tbaa !18
  %22 = load i32, ptr %6, align 4, !tbaa !18
  %23 = icmp slt i32 %21, %22
  br i1 %23, label %24, label %108

24:                                               ; preds = %20
  %25 = load ptr, ptr %7, align 8, !tbaa !34
  %26 = load i32, ptr %9, align 4, !tbaa !18
  %27 = sext i32 %26 to i64
  %28 = getelementptr inbounds ptr, ptr %25, i64 %27
  %29 = load ptr, ptr %28, align 8, !tbaa !15
  %30 = getelementptr inbounds i8, ptr %29, i64 0
  %31 = load i8, ptr %30, align 1, !tbaa !20
  %32 = sext i8 %31 to i32
  %33 = icmp eq i32 %32, 47
  br i1 %33, label %34, label %76

34:                                               ; preds = %24
  %35 = load ptr, ptr %7, align 8, !tbaa !34
  %36 = load i32, ptr %9, align 4, !tbaa !18
  %37 = sext i32 %36 to i64
  %38 = getelementptr inbounds ptr, ptr %35, i64 %37
  %39 = load ptr, ptr %38, align 8, !tbaa !15
  %40 = call i32 (ptr, ...) @printf(ptr noundef @.str.46, ptr noundef %39)
  %41 = load ptr, ptr %7, align 8, !tbaa !34
  %42 = load i32, ptr %9, align 4, !tbaa !18
  %43 = sext i32 %42 to i64
  %44 = getelementptr inbounds ptr, ptr %41, i64 %43
  %45 = load ptr, ptr %44, align 8, !tbaa !15
  %46 = getelementptr inbounds i8, ptr %45, i64 1
  %47 = load i8, ptr %46, align 1, !tbaa !20
  %48 = sext i8 %47 to i32
  %49 = icmp eq i32 %48, 0
  br i1 %49, label %50, label %52

50:                                               ; preds = %34
  %51 = load ptr, ptr %5, align 8, !tbaa !3
  store ptr %51, ptr %8, align 8, !tbaa !3
  br label %60

52:                                               ; preds = %34
  %53 = load ptr, ptr %5, align 8, !tbaa !3
  %54 = load ptr, ptr %7, align 8, !tbaa !34
  %55 = load i32, ptr %9, align 4, !tbaa !18
  %56 = sext i32 %55 to i64
  %57 = getelementptr inbounds ptr, ptr %54, i64 %56
  %58 = load ptr, ptr %57, align 8, !tbaa !15
  %59 = call ptr @getTest(ptr noundef %53, ptr noundef %58)
  store ptr %59, ptr %8, align 8, !tbaa !3
  br label %60

60:                                               ; preds = %52, %50
  %61 = load ptr, ptr %8, align 8, !tbaa !3
  %62 = icmp eq ptr %61, null
  br i1 %62, label %63, label %65

63:                                               ; preds = %60
  %64 = call i32 (ptr, ...) @printf(ptr noundef @.str.47)
  store i32 -1, ptr %4, align 4
  store i32 1, ptr %13, align 4
  br label %140

65:                                               ; preds = %60
  store i8 0, ptr @ON_LINE, align 1, !tbaa !20
  %66 = load i32, ptr %10, align 4, !tbaa !18
  %67 = icmp eq i32 %66, 1
  br i1 %67, label %68, label %70

68:                                               ; preds = %65
  %69 = load ptr, ptr %8, align 8, !tbaa !3
  call void @showTests(ptr noundef %69)
  br label %72

70:                                               ; preds = %65
  %71 = load ptr, ptr %8, align 8, !tbaa !3
  call void @runTests(ptr noundef %71)
  br label %72

72:                                               ; preds = %70, %68
  store i8 0, ptr @ON_LINE, align 1, !tbaa !20
  %73 = load i32, ptr @ERROR_COUNT, align 4, !tbaa !18
  %74 = load i32, ptr %12, align 4, !tbaa !18
  %75 = add nsw i32 %74, %73
  store i32 %75, ptr %12, align 4, !tbaa !18
  store i32 1, ptr %11, align 4, !tbaa !18
  br label %104

76:                                               ; preds = %24
  %77 = load ptr, ptr %7, align 8, !tbaa !34
  %78 = load i32, ptr %9, align 4, !tbaa !18
  %79 = sext i32 %78 to i64
  %80 = getelementptr inbounds ptr, ptr %77, i64 %79
  %81 = load ptr, ptr %80, align 8, !tbaa !15
  %82 = call i32 @strcmp(ptr noundef %81, ptr noundef @.str.19) #14
  %83 = icmp eq i32 %82, 0
  br i1 %83, label %92, label %84

84:                                               ; preds = %76
  %85 = load ptr, ptr %7, align 8, !tbaa !34
  %86 = load i32, ptr %9, align 4, !tbaa !18
  %87 = sext i32 %86 to i64
  %88 = getelementptr inbounds ptr, ptr %85, i64 %87
  %89 = load ptr, ptr %88, align 8, !tbaa !15
  %90 = call i32 @strcmp(ptr noundef %89, ptr noundef @.str.20) #14
  %91 = icmp eq i32 %90, 0
  br i1 %91, label %92, label %93

92:                                               ; preds = %84, %76
  store i32 0, ptr %11, align 4, !tbaa !18
  br label %103

93:                                               ; preds = %84
  %94 = load ptr, ptr %7, align 8, !tbaa !34
  %95 = load i32, ptr %9, align 4, !tbaa !18
  %96 = sext i32 %95 to i64
  %97 = getelementptr inbounds ptr, ptr %94, i64 %96
  %98 = load ptr, ptr %97, align 8, !tbaa !15
  %99 = call i32 @strcmp(ptr noundef %98, ptr noundef @.str.23) #14
  %100 = icmp eq i32 %99, 0
  br i1 %100, label %101, label %102

101:                                              ; preds = %93
  store i32 1, ptr %10, align 4, !tbaa !18
  br label %102

102:                                              ; preds = %101, %93
  br label %103

103:                                              ; preds = %102, %92
  br label %104

104:                                              ; preds = %103, %72
  br label %105

105:                                              ; preds = %104
  %106 = load i32, ptr %9, align 4, !tbaa !18
  %107 = add nsw i32 %106, 1
  store i32 %107, ptr %9, align 4, !tbaa !18
  br label %20, !llvm.loop !41

108:                                              ; preds = %20
  %109 = load i32, ptr %11, align 4, !tbaa !18
  %110 = icmp eq i32 %109, 0
  br i1 %110, label %111, label %122

111:                                              ; preds = %108
  store i8 0, ptr @ON_LINE, align 1, !tbaa !20
  %112 = load i32, ptr %10, align 4, !tbaa !18
  %113 = icmp eq i32 %112, 1
  br i1 %113, label %114, label %116

114:                                              ; preds = %111
  %115 = load ptr, ptr %8, align 8, !tbaa !3
  call void @showTests(ptr noundef %115)
  br label %118

116:                                              ; preds = %111
  %117 = load ptr, ptr %8, align 8, !tbaa !3
  call void @runTests(ptr noundef %117)
  br label %118

118:                                              ; preds = %116, %114
  store i8 0, ptr @ON_LINE, align 1, !tbaa !20
  %119 = load i32, ptr @ERROR_COUNT, align 4, !tbaa !18
  %120 = load i32, ptr %12, align 4, !tbaa !18
  %121 = add nsw i32 %120, %119
  store i32 %121, ptr %12, align 4, !tbaa !18
  br label %132

122:                                              ; preds = %108
  %123 = load i32, ptr %10, align 4, !tbaa !18
  %124 = icmp eq i32 %123, 0
  br i1 %124, label %125, label %131

125:                                              ; preds = %122
  %126 = load i32, ptr %12, align 4, !tbaa !18
  %127 = icmp sgt i32 %126, 0
  br i1 %127, label %128, label %131

128:                                              ; preds = %125
  %129 = load i32, ptr %12, align 4, !tbaa !18
  %130 = call i32 (ptr, ...) @printf(ptr noundef @.str.48, i32 noundef %129)
  br label %131

131:                                              ; preds = %128, %125, %122
  br label %132

132:                                              ; preds = %131, %118
  store i32 1, ptr @REPEAT_TESTS_INIT, align 4, !tbaa !18
  %133 = call i32 @ctest_xml_fini()
  %134 = icmp ne i32 %133, 0
  br i1 %134, label %135, label %138

135:                                              ; preds = %132
  %136 = load i32, ptr %12, align 4, !tbaa !18
  %137 = add nsw i32 %136, 1
  store i32 %137, ptr %12, align 4, !tbaa !18
  br label %138

138:                                              ; preds = %135, %132
  %139 = load i32, ptr %12, align 4, !tbaa !18
  store i32 %139, ptr %4, align 4
  store i32 1, ptr %13, align 4
  br label %140

140:                                              ; preds = %138, %63, %18
  call void @llvm.lifetime.end.p0(i64 4, ptr %12) #12
  call void @llvm.lifetime.end.p0(i64 4, ptr %11) #12
  call void @llvm.lifetime.end.p0(i64 4, ptr %10) #12
  call void @llvm.lifetime.end.p0(i64 4, ptr %9) #12
  call void @llvm.lifetime.end.p0(i64 8, ptr %8) #12
  %141 = load i32, ptr %4, align 4
  ret i32 %141
}