; Function Attrs: nounwind uwtable
define i32 @runTestRequest(ptr noundef %0, i32 noundef %1, ptr noundef readonly captures(none) %2) local_unnamed_addr #0 {
  %4 = alloca [512 x ptr], align 16
  %5 = alloca [512 x ptr], align 16
  %6 = load ptr, ptr @ARGV_0, align 8, !tbaa !21
  %7 = tail call i32 @ctest_xml_init(ptr noundef %6)
  %.not = icmp eq i32 %7, 0
  br i1 %.not, label %.preheader, label %ctest_xml_fini.exit

.preheader:                                       ; preds = %3
  %8 = icmp sgt i32 %1, 1
  br i1 %8, label %.lr.ph.preheader, label %.thread94

.thread94:                                        ; preds = %.preheader
  store i1 false, ptr @ON_LINE, align 1
  br label %52

.lr.ph.preheader:                                 ; preds = %.preheader
  %wide.trip.count = zext nneg i32 %1 to i64
  br label %.lr.ph.outer

.lr.ph.outer:                                     ; preds = %.tail48.thread, %.lr.ph.preheader
  %indvars.iv.ph = phi i64 [ %indvars.iv.next81, %.tail48.thread ], [ 1, %.lr.ph.preheader ]
  %.061.ph = phi i32 [ %45, %.tail48.thread ], [ 0, %.lr.ph.preheader ]
  %.03660.ph = phi i32 [ 1, %.tail48.thread ], [ 0, %.lr.ph.preheader ]
  %.03859.ph = phi i32 [ %.03859, %.tail48.thread ], [ 0, %.lr.ph.preheader ]
  %.04157.ph = phi ptr [ %.142, %.tail48.thread ], [ %0, %.lr.ph.preheader ]
  br label %.lr.ph

.lr.ph:                                           ; preds = %.lr.ph.outer, %.tail48
  %indvars.iv = phi i64 [ %indvars.iv.next, %.tail48 ], [ %indvars.iv.ph, %.lr.ph.outer ]
  %.03660 = phi i32 [ %.137, %.tail48 ], [ %.03660.ph, %.lr.ph.outer ]
  %.03859 = phi i32 [ %.139, %.tail48 ], [ %.03859.ph, %.lr.ph.outer ]
  %9 = getelementptr inbounds nuw ptr, ptr %2, i64 %indvars.iv
  %10 = load ptr, ptr %9, align 8, !tbaa !21
  %11 = load i8, ptr %10, align 1, !tbaa !11
  switch i8 %11, label %.tail.thread.thread [
    i8 47, label %12
    i8 45, label %sub_1
  ]

12:                                               ; preds = %.lr.ph
  %13 = getelementptr inbounds nuw ptr, ptr %2, i64 %indvars.iv
  %14 = call i32 (ptr, ...) @printf(ptr noundef nonnull dereferenceable(1) @.str.46, ptr noundef nonnull %10)
  %15 = load ptr, ptr %13, align 8, !tbaa !21
  %16 = getelementptr inbounds nuw i8, ptr %15, i64 1
  %17 = load i8, ptr %16, align 1, !tbaa !11
  %18 = icmp eq i8 %17, 0
  br i1 %18, label %21, label %19

19:                                               ; preds = %12
  %20 = call ptr @getTest(ptr noundef %0, ptr noundef nonnull %15)
  br label %21

21:                                               ; preds = %12, %19
  %.142 = phi ptr [ %20, %19 ], [ %0, %12 ]
  %22 = icmp eq ptr %.142, null
  br i1 %22, label %23, label %24

23:                                               ; preds = %21
  %puts = call i32 @puts(ptr nonnull dereferenceable(1) @str.18)
  br label %ctest_xml_fini.exit

24:                                               ; preds = %21
  store i1 false, ptr @ON_LINE, align 1
  %25 = icmp eq i32 %.03859, 1
  br i1 %25, label %showTests.exit, label %26

showTests.exit:                                   ; preds = %24
  call void @llvm.lifetime.start.p0(i64 4096, ptr nonnull %5) #23
  call fastcc void @iterateTestsWithLevel(ptr noundef nonnull %.142, i32 noundef 0, ptr noundef %5, i32 noundef 1)
  call void @llvm.lifetime.end.p0(i64 4096, ptr nonnull %5) #23
  br label %.tail48.thread

26:                                               ; preds = %24
  call void @runTests(ptr noundef nonnull %.142)
  br label %.tail48.thread

sub_1:                                            ; preds = %.lr.ph
  %27 = getelementptr inbounds nuw i8, ptr %10, i64 1
  %28 = load i8, ptr %27, align 1
  %.not66 = icmp eq i8 %28, 97
  br i1 %.not66, label %.tail, label %.tail.thread

.tail:                                            ; preds = %sub_1
  %29 = getelementptr inbounds nuw i8, ptr %10, i64 2
  %30 = load i8, ptr %29, align 1
  %31 = icmp eq i8 %30, 0
  br i1 %31, label %.tail48, label %.thread

.tail.thread:                                     ; preds = %sub_1
  %32 = call i32 @strcmp(ptr noundef nonnull dereferenceable(1) %10, ptr noundef nonnull dereferenceable(5) @.str.20) #25
  %33 = icmp eq i32 %32, 0
  br i1 %33, label %.tail48, label %sub_150

.tail.thread.thread:                              ; preds = %.lr.ph
  %34 = call i32 @strcmp(ptr noundef nonnull dereferenceable(1) %10, ptr noundef nonnull dereferenceable(5) @.str.20) #25
  %35 = icmp eq i32 %34, 0
  %spec.select = select i1 %35, i32 0, i32 %.03660
  br label %.tail48

.thread:                                          ; preds = %.tail
  %36 = call i32 @strcmp(ptr noundef nonnull dereferenceable(1) %10, ptr noundef nonnull dereferenceable(5) @.str.20) #25
  %37 = icmp eq i32 %36, 0
  br i1 %37, label %.tail48, label %sub_150

sub_150:                                          ; preds = %.tail.thread, %.thread
  %38 = getelementptr inbounds nuw i8, ptr %10, i64 1
  %39 = load i8, ptr %38, align 1
  %.not68 = icmp eq i8 %39, 108
  br i1 %.not68, label %sub_251, label %.tail48

sub_251:                                          ; preds = %sub_150
  %40 = getelementptr inbounds nuw i8, ptr %10, i64 2
  %41 = load i8, ptr %40, align 1
  %42 = icmp eq i8 %41, 0
  %43 = select i1 %42, i32 1, i32 %.03859
  br label %.tail48

.tail48:                                          ; preds = %.tail.thread.thread, %sub_251, %sub_150, %.thread, %.tail, %.tail.thread
  %.139 = phi i32 [ %.03859, %.tail.thread ], [ %.03859, %.tail ], [ %.03859, %.thread ], [ %.03859, %sub_150 ], [ %43, %sub_251 ], [ %.03859, %.tail.thread.thread ]
  %.137 = phi i32 [ 0, %.tail.thread ], [ 0, %.tail ], [ 0, %.thread ], [ %.03660, %sub_150 ], [ %.03660, %sub_251 ], [ %spec.select, %.tail.thread.thread ]
  %indvars.iv.next = add nuw nsw i64 %indvars.iv, 1
  %exitcond.not = icmp eq i64 %indvars.iv.next, %wide.trip.count
  br i1 %exitcond.not, label %._crit_edge, label %.lr.ph, !llvm.loop !30

.tail48.thread:                                   ; preds = %showTests.exit, %26
  store i1 false, ptr @ON_LINE, align 1
  %44 = load i32, ptr @ERROR_COUNT, align 4, !tbaa !18
  %45 = add nsw i32 %44, %.061.ph
  %indvars.iv.next81 = add nuw nsw i64 %indvars.iv, 1
  %exitcond.not82 = icmp eq i64 %indvars.iv.next81, %wide.trip.count
  br i1 %exitcond.not82, label %._crit_edge.thread87, label %.lr.ph.outer, !llvm.loop !30

._crit_edge:                                      ; preds = %.tail48
  %46 = icmp eq i32 %.137, 0
  br i1 %46, label %47, label %._crit_edge.thread87

47:                                               ; preds = %._crit_edge
  store i1 false, ptr @ON_LINE, align 1
  %48 = icmp eq i32 %.139, 1
  br i1 %48, label %49, label %52

49:                                               ; preds = %47
  call void @llvm.lifetime.start.p0(i64 4096, ptr nonnull %4) #23
  %50 = icmp eq ptr %.04157.ph, null
  br i1 %50, label %.split3.i46, label %.split.i45

.split.i45:                                       ; preds = %49
  call fastcc void @iterateTestsWithLevel(ptr noundef nonnull %.04157.ph, i32 noundef 0, ptr noundef %4, i32 noundef 1)
  br label %showTests.exit47

.split3.i46:                                      ; preds = %49
  call void (ptr, ...) @log_err(ptr noundef nonnull @.str.5)
  %51 = call double @uprv_getRawUTCtime_77() #23
  br label %showTests.exit47

showTests.exit47:                                 ; preds = %.split.i45, %.split3.i46
  call void @llvm.lifetime.end.p0(i64 4096, ptr nonnull %4) #23
  br label %53

52:                                               ; preds = %.thread94, %47
  %.041.lcssa74100 = phi ptr [ %0, %.thread94 ], [ %.04157.ph, %47 ]
  %.0.lcssa7699 = phi i32 [ 0, %.thread94 ], [ %.061.ph, %47 ]
  call void @runTests(ptr noundef %.041.lcssa74100)
  br label %53

53:                                               ; preds = %52, %showTests.exit47
  %.0.lcssa7698 = phi i32 [ %.0.lcssa7699, %52 ], [ %.061.ph, %showTests.exit47 ]
  store i1 false, ptr @ON_LINE, align 1
  %54 = load i32, ptr @ERROR_COUNT, align 4, !tbaa !18
  %55 = add nsw i32 %54, %.0.lcssa7698
  br label %60

._crit_edge.thread87:                             ; preds = %.tail48.thread, %._crit_edge
  %.1398493 = phi i32 [ %.139, %._crit_edge ], [ %.03859, %.tail48.thread ]
  %.18692 = phi i32 [ %.061.ph, %._crit_edge ], [ %45, %.tail48.thread ]
  %56 = icmp eq i32 %.1398493, 0
  %57 = icmp sgt i32 %.18692, 0
  %or.cond = select i1 %56, i1 %57, i1 false
  br i1 %or.cond, label %58, label %60

58:                                               ; preds = %._crit_edge.thread87
  %59 = call i32 (ptr, ...) @printf(ptr noundef nonnull dereferenceable(1) @.str.48, i32 noundef %.18692)
  br label %60

60:                                               ; preds = %._crit_edge.thread87, %58, %53
  %.2 = phi i32 [ %55, %53 ], [ %.18692, %58 ], [ %.18692, %._crit_edge.thread87 ]
  store i32 1, ptr @REPEAT_TESTS_INIT, align 4, !tbaa !18
  %61 = load ptr, ptr @XML_FILE, align 8, !tbaa !16
  %.not.i = icmp eq ptr %61, null
  br i1 %.not.i, label %ctest_xml_fini.exit, label %62

62:                                               ; preds = %60
  %63 = call i64 @fwrite(ptr nonnull @.str.52, i64 13, i64 1, ptr nonnull %61)
  %64 = load ptr, ptr @XML_FILE, align 8, !tbaa !16
  %65 = call i32 @fclose(ptr noundef %64)
  %66 = load ptr, ptr @XML_FILE_NAME, align 8, !tbaa !21
  %67 = call i32 (ptr, ...) @printf(ptr noundef nonnull dereferenceable(1) @.str.53, ptr noundef %66)
  store ptr null, ptr @XML_FILE, align 8, !tbaa !16
  br label %ctest_xml_fini.exit

ctest_xml_fini.exit:                              ; preds = %62, %60, %3, %23
  %.044 = phi i32 [ -1, %23 ], [ 1, %3 ], [ %.2, %60 ], [ %.2, %62 ]
  ret i32 %.044
}